; ModuleID = 'source-C-CXX/11/659.cpp'
source_filename = "source-C-CXX/11/659.cpp"
target datalayout = "e-m:e-p270:32:32-p271:32:32-p272:64:64-i64:64-f80:128-n8:16:32:64-S128"
target triple = "x86_64-pc-linux-gnu"

%"class.std::ios_base::Init" = type { i8 }
%"class.std::basic_istream" = type { i32 (...)**, i64, %"class.std::basic_ios" }
%"class.std::basic_ios" = type { %"class.std::ios_base", %"class.std::basic_ostream"*, i8, i8, %"class.std::basic_streambuf"*, %"class.std::ctype"*, %"class.std::num_put"*, %"class.std::num_get"* }
%"class.std::ios_base" = type { i32 (...)**, i64, i64, i32, i32, i32, %"struct.std::ios_base::_Callback_list"*, %"struct.std::ios_base::_Words", [8 x %"struct.std::ios_base::_Words"], i32, %"struct.std::ios_base::_Words"*, %"class.std::locale" }
%"struct.std::ios_base::_Callback_list" = type { %"struct.std::ios_base::_Callback_list"*, void (i32, %"class.std::ios_base"*, i32)*, i32, i32 }
%"struct.std::ios_base::_Words" = type { i8*, i64 }
%"class.std::locale" = type { %"class.std::locale::_Impl"* }
%"class.std::locale::_Impl" = type { i32, %"class.std::locale::facet"**, i64, %"class.std::locale::facet"**, i8** }
%"class.std::locale::facet" = type <{ i32 (...)**, i32, [4 x i8] }>
%"class.std::basic_ostream" = type { i32 (...)**, %"class.std::basic_ios" }
%"class.std::basic_streambuf" = type { i32 (...)**, i8*, i8*, i8*, i8*, i8*, i8*, %"class.std::locale" }
%"class.std::ctype" = type <{ %"class.std::locale::facet.base", [4 x i8], %struct.__locale_struct*, i8, [7 x i8], i32*, i32*, i16*, i8, [256 x i8], [256 x i8], i8, [6 x i8] }>
%"class.std::locale::facet.base" = type <{ i32 (...)**, i32 }>
%struct.__locale_struct = type { [13 x %struct.__locale_data*], i16*, i32*, i32*, [13 x i8*] }
%struct.__locale_data = type opaque
%"class.std::num_put" = type { %"class.std::locale::facet.base", [4 x i8] }
%"class.std::num_get" = type { %"class.std::locale::facet.base", [4 x i8] }

@_ZStL8__ioinit = internal global %"class.std::ios_base::Init" zeroinitializer, align 1
@__dso_handle = external hidden global i8
@_ZSt3cin = external global %"class.std::basic_istream", align 8
@_ZSt4cout = external global %"class.std::basic_ostream", align 8
@llvm.global_ctors = appending global [1 x { i32, void ()*, i8* }] [{ i32, void ()*, i8* } { i32 65535, void ()* @_GLOBAL__sub_I_659.cpp, i8* null }]

declare void @_ZNSt8ios_base4InitC1Ev(%"class.std::ios_base::Init"* nonnull align 1 dereferenceable(1)) unnamed_addr #0

; Function Attrs: nounwind
declare void @_ZNSt8ios_base4InitD1Ev(%"class.std::ios_base::Init"* nonnull align 1 dereferenceable(1)) unnamed_addr #1

; Function Attrs: nofree nounwind
declare i32 @__cxa_atexit(void (i8*)*, i8*, i8*) local_unnamed_addr #2

; Function Attrs: mustprogress norecurse sspstrong uwtable
define dso_local i32 @main() local_unnamed_addr #3 {
  %1 = alloca [20 x i32], align 16
  %2 = alloca i32, align 4
  %3 = bitcast [20 x i32]* %1 to i8*
  call void @llvm.lifetime.start.p0i8(i64 80, i8* nonnull %3) #9
  %4 = bitcast i32* %2 to i8*
  call void @llvm.lifetime.start.p0i8(i64 4, i8* nonnull %4) #9
  %5 = getelementptr inbounds [20 x i32], [20 x i32]* %1, i64 0, i64 0
  %6 = call nonnull align 8 dereferenceable(16) %"class.std::basic_istream"* @_ZNSirsERi(%"class.std::basic_istream"* nonnull align 8 dereferenceable(16) @_ZSt3cin, i32* nonnull align 4 dereferenceable(4) %2)
  %7 = load i32, i32* %2, align 4, !tbaa !5
  %8 = icmp eq i32 %7, -1
  br i1 %8, label %153, label %9

9:                                                ; preds = %0, %146
  %10 = phi i32 [ %151, %146 ], [ %7, %0 ]
  store i32 %10, i32* %5, align 16, !tbaa !5
  br label %11

11:                                               ; preds = %11, %9
  %12 = phi i64 [ %17, %11 ], [ 1, %9 ]
  %13 = getelementptr inbounds [20 x i32], [20 x i32]* %1, i64 0, i64 %12
  %14 = call nonnull align 8 dereferenceable(16) %"class.std::basic_istream"* @_ZNSirsERi(%"class.std::basic_istream"* nonnull align 8 dereferenceable(16) @_ZSt3cin, i32* nonnull align 4 dereferenceable(4) %13)
  %15 = load i32, i32* %13, align 4, !tbaa !5
  %16 = icmp eq i32 %15, 0
  %17 = add nuw i64 %12, 1
  br i1 %16, label %18, label %11, !llvm.loop !9

18:                                               ; preds = %11
  %19 = trunc i64 %12 to i32
  %20 = call i32 @llvm.umax.i32(i32 %19, i32 1)
  %21 = zext i32 %20 to i64
  %22 = and i64 %21, 4294967288
  %23 = add nsw i64 %22, -8
  %24 = lshr exact i64 %23, 3
  %25 = add nuw nsw i64 %24, 1
  %26 = icmp ult i32 %20, 8
  %27 = and i64 %21, 4294967288
  %28 = and i64 %25, 1
  %29 = icmp eq i64 %23, 0
  %30 = and i64 %25, 4611686018427387902
  %31 = icmp eq i64 %28, 0
  %32 = icmp eq i64 %27, %21
  br label %33

33:                                               ; preds = %18, %115
  %34 = phi i64 [ 0, %18 ], [ %117, %115 ]
  %35 = phi i32 [ 0, %18 ], [ %116, %115 ]
  %36 = getelementptr inbounds [20 x i32], [20 x i32]* %1, i64 0, i64 %34
  %37 = load i32, i32* %36, align 4, !tbaa !5
  %38 = shl nsw i32 %37, 1
  br i1 %26, label %102, label %39

39:                                               ; preds = %33
  %40 = insertelement <4 x i32> <i32 poison, i32 0, i32 0, i32 0>, i32 %35, i32 0
  %41 = insertelement <4 x i32> poison, i32 %38, i32 0
  %42 = shufflevector <4 x i32> %41, <4 x i32> poison, <4 x i32> zeroinitializer
  %43 = insertelement <4 x i32> poison, i32 %38, i32 0
  %44 = shufflevector <4 x i32> %43, <4 x i32> poison, <4 x i32> zeroinitializer
  br i1 %29, label %78, label %45

45:                                               ; preds = %39, %45
  %46 = phi i64 [ %75, %45 ], [ 0, %39 ]
  %47 = phi <4 x i32> [ %73, %45 ], [ %40, %39 ]
  %48 = phi <4 x i32> [ %74, %45 ], [ zeroinitializer, %39 ]
  %49 = phi i64 [ %76, %45 ], [ %30, %39 ]
  %50 = getelementptr inbounds [20 x i32], [20 x i32]* %1, i64 0, i64 %46
  %51 = bitcast i32* %50 to <4 x i32>*
  %52 = load <4 x i32>, <4 x i32>* %51, align 16, !tbaa !5
  %53 = getelementptr inbounds i32, i32* %50, i64 4
  %54 = bitcast i32* %53 to <4 x i32>*
  %55 = load <4 x i32>, <4 x i32>* %54, align 16, !tbaa !5
  %56 = icmp eq <4 x i32> %52, %42
  %57 = icmp eq <4 x i32> %55, %44
  %58 = zext <4 x i1> %56 to <4 x i32>
  %59 = zext <4 x i1> %57 to <4 x i32>
  %60 = add <4 x i32> %47, %58
  %61 = add <4 x i32> %48, %59
  %62 = or i64 %46, 8
  %63 = getelementptr inbounds [20 x i32], [20 x i32]* %1, i64 0, i64 %62
  %64 = bitcast i32* %63 to <4 x i32>*
  %65 = load <4 x i32>, <4 x i32>* %64, align 16, !tbaa !5
  %66 = getelementptr inbounds i32, i32* %63, i64 4
  %67 = bitcast i32* %66 to <4 x i32>*
  %68 = load <4 x i32>, <4 x i32>* %67, align 16, !tbaa !5
  %69 = icmp eq <4 x i32> %65, %42
  %70 = icmp eq <4 x i32> %68, %44
  %71 = zext <4 x i1> %69 to <4 x i32>
  %72 = zext <4 x i1> %70 to <4 x i32>
  %73 = add <4 x i32> %60, %71
  %74 = add <4 x i32> %61, %72
  %75 = add nuw i64 %46, 16
  %76 = add i64 %49, -2
  %77 = icmp eq i64 %76, 0
  br i1 %77, label %78, label %45, !llvm.loop !11

78:                                               ; preds = %45, %39
  %79 = phi <4 x i32> [ undef, %39 ], [ %73, %45 ]
  %80 = phi <4 x i32> [ undef, %39 ], [ %74, %45 ]
  %81 = phi i64 [ 0, %39 ], [ %75, %45 ]
  %82 = phi <4 x i32> [ %40, %39 ], [ %73, %45 ]
  %83 = phi <4 x i32> [ zeroinitializer, %39 ], [ %74, %45 ]
  br i1 %31, label %97, label %84

84:                                               ; preds = %78
  %85 = getelementptr inbounds [20 x i32], [20 x i32]* %1, i64 0, i64 %81
  %86 = getelementptr inbounds i32, i32* %85, i64 4
  %87 = bitcast i32* %86 to <4 x i32>*
  %88 = load <4 x i32>, <4 x i32>* %87, align 16, !tbaa !5
  %89 = icmp eq <4 x i32> %88, %44
  %90 = zext <4 x i1> %89 to <4 x i32>
  %91 = add <4 x i32> %83, %90
  %92 = bitcast i32* %85 to <4 x i32>*
  %93 = load <4 x i32>, <4 x i32>* %92, align 16, !tbaa !5
  %94 = icmp eq <4 x i32> %93, %42
  %95 = zext <4 x i1> %94 to <4 x i32>
  %96 = add <4 x i32> %82, %95
  br label %97

97:                                               ; preds = %78, %84
  %98 = phi <4 x i32> [ %79, %78 ], [ %96, %84 ]
  %99 = phi <4 x i32> [ %80, %78 ], [ %91, %84 ]
  %100 = add <4 x i32> %99, %98
  %101 = call i32 @llvm.vector.reduce.add.v4i32(<4 x i32> %100)
  br i1 %32, label %115, label %102

102:                                              ; preds = %33, %97
  %103 = phi i64 [ 0, %33 ], [ %27, %97 ]
  %104 = phi i32 [ %35, %33 ], [ %101, %97 ]
  br label %105

105:                                              ; preds = %102, %105
  %106 = phi i64 [ %113, %105 ], [ %103, %102 ]
  %107 = phi i32 [ %112, %105 ], [ %104, %102 ]
  %108 = getelementptr inbounds [20 x i32], [20 x i32]* %1, i64 0, i64 %106
  %109 = load i32, i32* %108, align 4, !tbaa !5
  %110 = icmp eq i32 %109, %38
  %111 = zext i1 %110 to i32
  %112 = add nsw i32 %107, %111
  %113 = add nuw nsw i64 %106, 1
  %114 = icmp eq i64 %113, %21
  br i1 %114, label %115, label %105, !llvm.loop !13

115:                                              ; preds = %105, %97
  %116 = phi i32 [ %101, %97 ], [ %112, %105 ]
  %117 = add nuw nsw i64 %34, 1
  %118 = icmp eq i64 %117, %21
  br i1 %118, label %119, label %33, !llvm.loop !15

119:                                              ; preds = %115
  %120 = call nonnull align 8 dereferenceable(8) %"class.std::basic_ostream"* @_ZNSolsEi(%"class.std::basic_ostream"* nonnull align 8 dereferenceable(8) @_ZSt4cout, i32 %116)
  %121 = bitcast %"class.std::basic_ostream"* %120 to i8**
  %122 = load i8*, i8** %121, align 8, !tbaa !16
  %123 = getelementptr i8, i8* %122, i64 -24
  %124 = bitcast i8* %123 to i64*
  %125 = load i64, i64* %124, align 8
  %126 = bitcast %"class.std::basic_ostream"* %120 to i8*
  %127 = add nsw i64 %125, 240
  %128 = getelementptr inbounds i8, i8* %126, i64 %127
  %129 = bitcast i8* %128 to %"class.std::ctype"**
  %130 = load %"class.std::ctype"*, %"class.std::ctype"** %129, align 8, !tbaa !18
  %131 = icmp eq %"class.std::ctype"* %130, null
  br i1 %131, label %132, label %133

132:                                              ; preds = %119
  call void @_ZSt16__throw_bad_castv() #10
  unreachable

133:                                              ; preds = %119
  %134 = getelementptr inbounds %"class.std::ctype", %"class.std::ctype"* %130, i64 0, i32 8
  %135 = load i8, i8* %134, align 8, !tbaa !22
  %136 = icmp eq i8 %135, 0
  br i1 %136, label %140, label %137

137:                                              ; preds = %133
  %138 = getelementptr inbounds %"class.std::ctype", %"class.std::ctype"* %130, i64 0, i32 9, i64 10
  %139 = load i8, i8* %138, align 1, !tbaa !24
  br label %146

140:                                              ; preds = %133
  call void @_ZNKSt5ctypeIcE13_M_widen_initEv(%"class.std::ctype"* nonnull align 8 dereferenceable(570) %130)
  %141 = bitcast %"class.std::ctype"* %130 to i8 (%"class.std::ctype"*, i8)***
  %142 = load i8 (%"class.std::ctype"*, i8)**, i8 (%"class.std::ctype"*, i8)*** %141, align 8, !tbaa !16
  %143 = getelementptr inbounds i8 (%"class.std::ctype"*, i8)*, i8 (%"class.std::ctype"*, i8)** %142, i64 6
  %144 = load i8 (%"class.std::ctype"*, i8)*, i8 (%"class.std::ctype"*, i8)** %143, align 8
  %145 = call signext i8 %144(%"class.std::ctype"* nonnull align 8 dereferenceable(570) %130, i8 signext 10)
  br label %146

146:                                              ; preds = %137, %140
  %147 = phi i8 [ %139, %137 ], [ %145, %140 ]
  %148 = call nonnull align 8 dereferenceable(8) %"class.std::basic_ostream"* @_ZNSo3putEc(%"class.std::basic_ostream"* nonnull align 8 dereferenceable(8) %120, i8 signext %147)
  %149 = call nonnull align 8 dereferenceable(8) %"class.std::basic_ostream"* @_ZNSo5flushEv(%"class.std::basic_ostream"* nonnull align 8 dereferenceable(8) %148)
  %150 = call nonnull align 8 dereferenceable(16) %"class.std::basic_istream"* @_ZNSirsERi(%"class.std::basic_istream"* nonnull align 8 dereferenceable(16) @_ZSt3cin, i32* nonnull align 4 dereferenceable(4) %2)
  %151 = load i32, i32* %2, align 4, !tbaa !5
  %152 = icmp eq i32 %151, -1
  br i1 %152, label %153, label %9, !llvm.loop !25

153:                                              ; preds = %146, %0
  call void @llvm.lifetime.end.p0i8(i64 4, i8* nonnull %4) #9
  call void @llvm.lifetime.end.p0i8(i64 80, i8* nonnull %3) #9
  ret i32 0
}

; Function Attrs: argmemonly mustprogress nofree nosync nounwind willreturn
declare void @llvm.lifetime.start.p0i8(i64 immarg, i8* nocapture) #4

declare nonnull align 8 dereferenceable(16) %"class.std::basic_istream"* @_ZNSirsERi(%"class.std::basic_istream"* nonnull align 8 dereferenceable(16), i32* nonnull align 4 dereferenceable(4)) local_unnamed_addr #0

declare nonnull align 8 dereferenceable(8) %"class.std::basic_ostream"* @_ZNSolsEi(%"class.std::basic_ostream"* nonnull align 8 dereferenceable(8), i32) local_unnamed_addr #0

; Function Attrs: argmemonly mustprogress nofree nosync nounwind willreturn
declare void @llvm.lifetime.end.p0i8(i64 immarg, i8* nocapture) #4

declare nonnull align 8 dereferenceable(8) %"class.std::basic_ostream"* @_ZNSo3putEc(%"class.std::basic_ostream"* nonnull align 8 dereferenceable(8), i8 signext) local_unnamed_addr #0

declare nonnull align 8 dereferenceable(8) %"class.std::basic_ostream"* @_ZNSo5flushEv(%"class.std::basic_ostream"* nonnull align 8 dereferenceable(8)) local_unnamed_addr #0

; Function Attrs: noreturn
declare void @_ZSt16__throw_bad_castv() local_unnamed_addr #5

declare void @_ZNKSt5ctypeIcE13_M_widen_initEv(%"class.std::ctype"* nonnull align 8 dereferenceable(570)) local_unnamed_addr #0

; Function Attrs: sspstrong uwtable
define internal void @_GLOBAL__sub_I_659.cpp() #6 section ".text.startup" {
  tail call void @_ZNSt8ios_base4InitC1Ev(%"class.std::ios_base::Init"* nonnull align 1 dereferenceable(1) @_ZStL8__ioinit)
  %1 = tail call i32 @__cxa_atexit(void (i8*)* bitcast (void (%"class.std::ios_base::Init"*)* @_ZNSt8ios_base4InitD1Ev to void (i8*)*), i8* getelementptr inbounds (%"class.std::ios_base::Init", %"class.std::ios_base::Init"* @_ZStL8__ioinit, i64 0, i32 0), i8* nonnull @__dso_handle) #9
  ret void
}

; Function Attrs: nofree nosync nounwind readnone speculatable willreturn
declare i32 @llvm.umax.i32(i32, i32) #7

; Function Attrs: nofree nosync nounwind readnone willreturn
declare i32 @llvm.vector.reduce.add.v4i32(<4 x i32>) #8


!llvm.module.flags = !{!0, !1, !2, !3}
!llvm.ident = !{!4}

!0 = !{i32 1, !"wchar_size", i32 4}
!1 = !{i32 7, !"PIC Level", i32 2}
!2 = !{i32 7, !"PIE Level", i32 2}
!3 = !{i32 7, !"uwtable", i32 1}
!4 = !{!"clang version 13.0.0"}
!5 = !{!6, !6, i64 0}
!6 = !{!"int", !7, i64 0}
!7 = !{!"omnipotent char", !8, i64 0}
!8 = !{!"Simple C++ TBAA"}
!9 = distinct !{!9, !10}
!10 = !{!"llvm.loop.mustprogress"}
!11 = distinct !{!11, !10, !12}
!12 = !{!"llvm.loop.isvectorized", i32 1}
!13 = distinct !{!13, !10, !14, !12}
!14 = !{!"llvm.loop.unroll.runtime.disable"}
!15 = distinct !{!15, !10}
!16 = !{!17, !17, i64 0}
!17 = !{!"vtable pointer", !8, i64 0}
!18 = !{!19, !20, i64 240}
!19 = !{!"_ZTSSt9basic_iosIcSt11char_traitsIcEE", !20, i64 216, !7, i64 224, !21, i64 225, !20, i64 232, !20, i64 240, !20, i64 248, !20, i64 256}
!20 = !{!"any pointer", !7, i64 0}
!21 = !{!"bool", !7, i64 0}
!22 = !{!23, !7, i64 56}
!23 = !{!"_ZTSSt5ctypeIcE", !20, i64 16, !21, i64 24, !20, i64 32, !20, i64 40, !20, i64 48, !7, i64 56, !7, i64 57, !7, i64 313, !7, i64 569}
!24 = !{!7, !7, i64 0}
!25 = distinct !{!25, !10}
